target datalayout = "e-m:e-p270:32:32-p271:32:32-p272:64:64-i64:64-i128:128-f80:128-n8:16:32:64-S128"
target triple = "x86_64-pc-linux-gnu"

@.str.8 = private unnamed_addr constant [8 x i8] c"unknown\00", align 1

; Function Attrs: mustprogress uwtable
define internal noundef zeroext i8 @_ZN6icu_77L10getCharCatEi(i32 noundef %0) #0 {
  %2 = alloca i8, align 1
  %3 = alloca i32, align 4
  %4 = alloca i8, align 1
  %5 = alloca i32, align 4
  store i32 %0, ptr %3, align 4, !tbaa !3
  call void @llvm.lifetime.start.p0(i64 1, ptr %4) #12
  %6 = load i32, ptr %3, align 4, !tbaa !3
  %7 = icmp sge i32 %6, 64976
  br i1 %7, label %8, label %19

8:                                                ; preds = %1
  %9 = load i32, ptr %3, align 4, !tbaa !3
  %10 = icmp sle i32 %9, 65007
  br i1 %10, label %15, label %11

11:                                               ; preds = %8
  %12 = load i32, ptr %3, align 4, !tbaa !3
  %13 = and i32 %12, 65534
  %14 = icmp eq i32 %13, 65534
  br i1 %14, label %15, label %19

15:                                               ; preds = %11, %8
  %16 = load i32, ptr %3, align 4, !tbaa !3
  %17 = icmp sle i32 %16, 1114111
  br i1 %17, label %18, label %19

18:                                               ; preds = %15
  store i8 30, ptr %2, align 1
  store i32 1, ptr %5, align 4
  br label %32

19:                                               ; preds = %15, %11, %1
  %20 = load i32, ptr %3, align 4, !tbaa !3
  %21 = call signext i8 @u_charType_77(i32 noundef %20)
  store i8 %21, ptr %4, align 1, !tbaa !27
  %22 = zext i8 %21 to i32
  %23 = icmp eq i32 %22, 18
  br i1 %23, label %24, label %30

24:                                               ; preds = %19
  %25 = load i32, ptr %3, align 4, !tbaa !3
  %26 = and i32 %25, -1024
  %27 = icmp eq i32 %26, 55296
  %28 = select i1 %27, i32 31, i32 32
  %29 = trunc i32 %28 to i8
  store i8 %29, ptr %4, align 1, !tbaa !27
  br label %30

30:                                               ; preds = %24, %19
  %31 = load i8, ptr %4, align 1, !tbaa !27
  store i8 %31, ptr %2, align 1
  store i32 1, ptr %5, align 4
  br label %32

32:                                               ; preds = %30, %18
  call void @llvm.lifetime.end.p0(i64 1, ptr %4) #12
  %33 = load i8, ptr %2, align 1
  ret i8 %33
}

; Function Attrs: mustprogress uwtable
define internal noundef ptr @_ZN6icu_77L14getCharCatNameEi(i32 noundef %0) #0 {
  %2 = alloca ptr, align 8
  %3 = alloca i32, align 4
  %4 = alloca i8, align 1
  %5 = alloca i32, align 4
  store i32 %0, ptr %3, align 4, !tbaa !3
  call void @llvm.lifetime.start.p0(i64 1, ptr %4) #12
  %6 = load i32, ptr %3, align 4, !tbaa !3
  %7 = call noundef zeroext i8 @_ZN6icu_77L10getCharCatEi(i32 noundef %6)
  store i8 %7, ptr %4, align 1, !tbaa !27
  %8 = load i8, ptr %4, align 1, !tbaa !27
  %9 = zext i8 %8 to i32
  %10 = icmp sge i32 %9, 33
  br i1 %10, label %11, label %12

11:                                               ; preds = %1
  store ptr @.str.8, ptr %2, align 8
  store i32 1, ptr %5, align 4
  br label %17

12:                                               ; preds = %1
  %13 = load i8, ptr %4, align 1, !tbaa !27
  %14 = zext i8 %13 to i64
  %15 = getelementptr inbounds nuw [33 x ptr], ptr @_ZN6icu_77L12charCatNamesE, i64 0, i64 %14
  %16 = load ptr, ptr %15, align 8, !tbaa !9
  store ptr %16, ptr %2, align 8
  store i32 1, ptr %5, align 4
  br label %17

17:                                               ; preds = %12, %11
  call void @llvm.lifetime.end.p0(i64 1, ptr %4) #12
  %18 = load ptr, ptr %2, align 8
  ret ptr %18
}

; Function Attrs: mustprogress uwtable
define internal noundef zeroext i16 @_ZN6icu_77L10getExtNameEjPct(i32 noundef %0, ptr noundef %1, i16 noundef zeroext %2) #0 {
  %4 = alloca i32, align 4
  %5 = alloca ptr, align 8
  %6 = alloca i16, align 2
  %7 = alloca ptr, align 8
  %8 = alloca i16, align 2
  %9 = alloca i32, align 4
  %10 = alloca i32, align 4
  %11 = alloca i32, align 4
  %12 = alloca i8, align 1
  store i32 %0, ptr %4, align 4, !tbaa !3
  store ptr %1, ptr %5, align 8, !tbaa !9
  store i16 %2, ptr %6, align 2, !tbaa !26
  call void @llvm.lifetime.start.p0(i64 8, ptr %7) #12
  %13 = load i32, ptr %4, align 4, !tbaa !3
  %14 = call noundef ptr @_ZN6icu_77L14getCharCatNameEi(i32 noundef %13)
  store ptr %14, ptr %7, align 8, !tbaa !9
  call void @llvm.lifetime.start.p0(i64 2, ptr %8) #12
  store i16 0, ptr %8, align 2, !tbaa !26
  call void @llvm.lifetime.start.p0(i64 4, ptr %9) #12
  call void @llvm.lifetime.start.p0(i64 4, ptr %10) #12
  call void @llvm.lifetime.start.p0(i64 4, ptr %11) #12
  br label %15

15:                                               ; preds = %3
  %16 = load i16, ptr %6, align 2, !tbaa !26
  %17 = zext i16 %16 to i32
  %18 = icmp sgt i32 %17, 0
  br i1 %18, label %19, label %24

19:                                               ; preds = %15
  %20 = load ptr, ptr %5, align 8, !tbaa !9
  %21 = getelementptr inbounds nuw i8, ptr %20, i32 1
  store ptr %21, ptr %5, align 8, !tbaa !9
  store i8 60, ptr %20, align 1, !tbaa !27
  %22 = load i16, ptr %6, align 2, !tbaa !26
  %23 = add i16 %22, -1
  store i16 %23, ptr %6, align 2, !tbaa !26
  br label %24

24:                                               ; preds = %19, %15
  %25 = load i16, ptr %8, align 2, !tbaa !26
  %26 = add i16 %25, 1
  store i16 %26, ptr %8, align 2, !tbaa !26
  br label %27

27:                                               ; preds = %24
  br label %28

28:                                               ; preds = %27
  br label %29

29:                                               ; preds = %59, %28
  %30 = load ptr, ptr %7, align 8, !tbaa !9
  %31 = load i16, ptr %8, align 2, !tbaa !26
  %32 = zext i16 %31 to i32
  %33 = sub nsw i32 %32, 1
  %34 = sext i32 %33 to i64
  %35 = getelementptr inbounds i8, ptr %30, i64 %34
  %36 = load i8, ptr %35, align 1, !tbaa !27
  %37 = icmp ne i8 %36, 0
  br i1 %37, label %38, label %60

38:                                               ; preds = %29
  br label %39

39:                                               ; preds = %38
  %40 = load i16, ptr %6, align 2, !tbaa !26
  %41 = zext i16 %40 to i32
  %42 = icmp sgt i32 %41, 0
  br i1 %42, label %43, label %55

43:                                               ; preds = %39
  %44 = load ptr, ptr %7, align 8, !tbaa !9
  %45 = load i16, ptr %8, align 2, !tbaa !26
  %46 = zext i16 %45 to i32
  %47 = sub nsw i32 %46, 1
  %48 = sext i32 %47 to i64
  %49 = getelementptr inbounds i8, ptr %44, i64 %48
  %50 = load i8, ptr %49, align 1, !tbaa !27
  %51 = load ptr, ptr %5, align 8, !tbaa !9
  %52 = getelementptr inbounds nuw i8, ptr %51, i32 1
  store ptr %52, ptr %5, align 8, !tbaa !9
  store i8 %50, ptr %51, align 1, !tbaa !27
  %53 = load i16, ptr %6, align 2, !tbaa !26
  %54 = add i16 %53, -1
  store i16 %54, ptr %6, align 2, !tbaa !26
  br label %55

55:                                               ; preds = %43, %39
  %56 = load i16, ptr %8, align 2, !tbaa !26
  %57 = add i16 %56, 1
  store i16 %57, ptr %8, align 2, !tbaa !26
  br label %58

58:                                               ; preds = %55
  br label %59

59:                                               ; preds = %58
  br label %29, !llvm.loop !35

60:                                               ; preds = %29
  br label %61

61:                                               ; preds = %60
  %62 = load i16, ptr %6, align 2, !tbaa !26
  %63 = zext i16 %62 to i32
  %64 = icmp sgt i32 %63, 0
  br i1 %64, label %65, label %70

65:                                               ; preds = %61
  %66 = load ptr, ptr %5, align 8, !tbaa !9
  %67 = getelementptr inbounds nuw i8, ptr %66, i32 1
  store ptr %67, ptr %5, align 8, !tbaa !9
  store i8 45, ptr %66, align 1, !tbaa !27
  %68 = load i16, ptr %6, align 2, !tbaa !26
  %69 = add i16 %68, -1
  store i16 %69, ptr %6, align 2, !tbaa !26
  br label %70

70:                                               ; preds = %65, %61
  %71 = load i16, ptr %8, align 2, !tbaa !26
  %72 = add i16 %71, 1
  store i16 %72, ptr %8, align 2, !tbaa !26
  br label %73

73:                                               ; preds = %70
  br label %74

74:                                               ; preds = %73
  %75 = load i32, ptr %4, align 4, !tbaa !3
  store i32 %75, ptr %9, align 4, !tbaa !3
  store i32 0, ptr %10, align 4, !tbaa !3
  br label %76

76:                                               ; preds = %80, %74
  %77 = load i32, ptr %9, align 4, !tbaa !3
  %78 = icmp ne i32 %77, 0
  br i1 %78, label %79, label %85

79:                                               ; preds = %76
  br label %80

80:                                               ; preds = %79
  %81 = load i32, ptr %10, align 4, !tbaa !3
  %82 = add nsw i32 %81, 1
  store i32 %82, ptr %10, align 4, !tbaa !3
  %83 = load i32, ptr %9, align 4, !tbaa !3
  %84 = ashr i32 %83, 4
  store i32 %84, ptr %9, align 4, !tbaa !3
  br label %76, !llvm.loop !36

85:                                               ; preds = %76
  %86 = load i32, ptr %10, align 4, !tbaa !3
  %87 = icmp slt i32 %86, 4
  br i1 %87, label %88, label %89

88:                                               ; preds = %85
  store i32 4, ptr %10, align 4, !tbaa !3
  br label %89

89:                                               ; preds = %88, %85
  %90 = load i32, ptr %4, align 4, !tbaa !3
  store i32 %90, ptr %9, align 4, !tbaa !3
  %91 = load i32, ptr %10, align 4, !tbaa !3
  store i32 %91, ptr %11, align 4, !tbaa !3
  br label %92

92:                                               ; preds = %127, %89
  %93 = load i32, ptr %9, align 4, !tbaa !3
  %94 = icmp ne i32 %93, 0
  br i1 %94, label %98, label %95

95:                                               ; preds = %92
  %96 = load i32, ptr %11, align 4, !tbaa !3
  %97 = icmp sgt i32 %96, 0
  br i1 %97, label %98, label %101

98:                                               ; preds = %95, %92
  %99 = load i16, ptr %6, align 2, !tbaa !26
  %100 = icmp ne i16 %99, 0
  br label %101

101:                                              ; preds = %98, %95
  %102 = phi i1 [ false, %95 ], [ %100, %98 ]
  br i1 %102, label %103, label %132

103:                                              ; preds = %101
  call void @llvm.lifetime.start.p0(i64 1, ptr %12) #12
  %104 = load i32, ptr %9, align 4, !tbaa !3
  %105 = and i32 %104, 15
  %106 = trunc i32 %105 to i8
  store i8 %106, ptr %12, align 1, !tbaa !27
  %107 = load i8, ptr %12, align 1, !tbaa !27
  %108 = zext i8 %107 to i32
  %109 = icmp slt i32 %108, 10
  br i1 %109, label %110, label %114

110:                                              ; preds = %103
  %111 = load i8, ptr %12, align 1, !tbaa !27
  %112 = zext i8 %111 to i32
  %113 = add nsw i32 48, %112
  br label %119

114:                                              ; preds = %103
  %115 = load i8, ptr %12, align 1, !tbaa !27
  %116 = zext i8 %115 to i32
  %117 = add nsw i32 65, %116
  %118 = sub nsw i32 %117, 10
  br label %119

119:                                              ; preds = %114, %110
  %120 = phi i32 [ %113, %110 ], [ %118, %114 ]
  %121 = trunc i32 %120 to i8
  %122 = load ptr, ptr %5, align 8, !tbaa !9
  %123 = load i32, ptr %11, align 4, !tbaa !3
  %124 = add nsw i32 %123, -1
  store i32 %124, ptr %11, align 4, !tbaa !3
  %125 = sext i32 %124 to i64
  %126 = getelementptr inbounds i8, ptr %122, i64 %125
  store i8 %121, ptr %126, align 1, !tbaa !27
  call void @llvm.lifetime.end.p0(i64 1, ptr %12) #12
  br label %127

127:                                              ; preds = %119
  %128 = load i32, ptr %9, align 4, !tbaa !3
  %129 = ashr i32 %128, 4
  store i32 %129, ptr %9, align 4, !tbaa !3
  %130 = load i16, ptr %6, align 2, !tbaa !26
  %131 = add i16 %130, -1
  store i16 %131, ptr %6, align 2, !tbaa !26
  br label %92, !llvm.loop !37

132:                                              ; preds = %101
  %133 = load i32, ptr %10, align 4, !tbaa !3
  %134 = load ptr, ptr %5, align 8, !tbaa !9
  %135 = sext i32 %133 to i64
  %136 = getelementptr inbounds i8, ptr %134, i64 %135
  store ptr %136, ptr %5, align 8, !tbaa !9
  %137 = load i32, ptr %10, align 4, !tbaa !3
  %138 = trunc i32 %137 to i16
  %139 = zext i16 %138 to i32
  %140 = load i16, ptr %8, align 2, !tbaa !26
  %141 = zext i16 %140 to i32
  %142 = add nsw i32 %141, %139
  %143 = trunc i32 %142 to i16
  store i16 %143, ptr %8, align 2, !tbaa !26
  br label %144

144:                                              ; preds = %132
  %145 = load i16, ptr %6, align 2, !tbaa !26
  %146 = zext i16 %145 to i32
  %147 = icmp sgt i32 %146, 0
  br i1 %147, label %148, label %153

148:                                              ; preds = %144
  %149 = load ptr, ptr %5, align 8, !tbaa !9
  %150 = getelementptr inbounds nuw i8, ptr %149, i32 1
  store ptr %150, ptr %5, align 8, !tbaa !9
  store i8 62, ptr %149, align 1, !tbaa !27
  %151 = load i16, ptr %6, align 2, !tbaa !26
  %152 = add i16 %151, -1
  store i16 %152, ptr %6, align 2, !tbaa !26
  br label %153

153:                                              ; preds = %148, %144
  %154 = load i16, ptr %8, align 2, !tbaa !26
  %155 = add i16 %154, 1
  store i16 %155, ptr %8, align 2, !tbaa !26
  br label %156

156:                                              ; preds = %153
  br label %157

157:                                              ; preds = %156
  %158 = load i16, ptr %8, align 2, !tbaa !26
  call void @llvm.lifetime.end.p0(i64 4, ptr %11) #12
  call void @llvm.lifetime.end.p0(i64 4, ptr %10) #12
  call void @llvm.lifetime.end.p0(i64 4, ptr %9) #12
  call void @llvm.lifetime.end.p0(i64 2, ptr %8) #12
  call void @llvm.lifetime.end.p0(i64 8, ptr %7) #12
  ret i16 %158
}