; Function Attrs: mustprogress uwtable
define internal fastcc noundef zeroext i16 @_ZN6icu_77L10getExtNameEjPct(i32 noundef range(i32 -2147483648, 2147483647) %0, ptr noundef writeonly captures(none) %1, i16 noundef zeroext %2) unnamed_addr #0 {
  %4 = icmp sgt i32 %0, 64975
  br i1 %4, label %5, label %11

5:                                                ; preds = %3
  %6 = icmp samesign ult i32 %0, 65008
  br i1 %6, label %_ZN6icu_77L10getCharCatEi.exit.thread.i, label %7

7:                                                ; preds = %5
  %8 = and i32 %0, 65534
  %9 = icmp eq i32 %8, 65534
  %10 = icmp samesign ult i32 %0, 1114112
  %or.cond.i.i = and i1 %10, %9
  br i1 %or.cond.i.i, label %_ZN6icu_77L10getCharCatEi.exit.thread.i, label %11

11:                                               ; preds = %7, %3
  %12 = tail call signext i8 @u_charType_77(i32 noundef range(i32 -2147483648, 2147483647) %0)
  %13 = icmp eq i8 %12, 18
  %14 = and i32 %0, -1024
  %15 = icmp eq i32 %14, 55296
  %16 = select i1 %15, i8 31, i8 32
  br i1 %13, label %_ZN6icu_77L10getCharCatEi.exit.thread.i, label %_ZN6icu_77L10getCharCatEi.exit.i

_ZN6icu_77L10getCharCatEi.exit.i:                 ; preds = %11
  %17 = icmp ugt i8 %12, 32
  br i1 %17, label %_ZN6icu_77L14getCharCatNameEi.exit, label %_ZN6icu_77L10getCharCatEi.exit.thread.i

_ZN6icu_77L10getCharCatEi.exit.thread.i:          ; preds = %_ZN6icu_77L10getCharCatEi.exit.i, %11, %7, %5
  %.010.i4.i = phi i8 [ %12, %_ZN6icu_77L10getCharCatEi.exit.i ], [ 30, %7 ], [ 30, %5 ], [ %16, %11 ]
  %18 = zext nneg i8 %.010.i4.i to i64
  %19 = getelementptr inbounds nuw [33 x ptr], ptr @_ZN6icu_77L12charCatNamesE, i64 0, i64 %18
  %20 = load ptr, ptr %19, align 8, !tbaa !44
  br label %_ZN6icu_77L14getCharCatNameEi.exit

_ZN6icu_77L14getCharCatNameEi.exit:               ; preds = %_ZN6icu_77L10getCharCatEi.exit.i, %_ZN6icu_77L10getCharCatEi.exit.thread.i
  %.0.i = phi ptr [ %20, %_ZN6icu_77L10getCharCatEi.exit.thread.i ], [ @.str.8, %_ZN6icu_77L10getCharCatEi.exit.i ]
  %.not = icmp eq i16 %2, 0
  br i1 %.not, label %24, label %21

21:                                               ; preds = %_ZN6icu_77L14getCharCatNameEi.exit
  %22 = getelementptr inbounds nuw i8, ptr %1, i64 1
  store i8 60, ptr %1, align 1, !tbaa !26
  %23 = add i16 %2, -1
  br label %24

24:                                               ; preds = %21, %_ZN6icu_77L14getCharCatNameEi.exit
  %.051 = phi i16 [ %23, %21 ], [ 0, %_ZN6icu_77L14getCharCatNameEi.exit ]
  %.0 = phi ptr [ %22, %21 ], [ %1, %_ZN6icu_77L14getCharCatNameEi.exit ]
  %invariant.gep = getelementptr i8, ptr %.0.i, i64 -1
  %25 = load i8, ptr %.0.i, align 1, !tbaa !26
  %.not5864 = icmp eq i8 %25, 0
  br i1 %.not5864, label %._crit_edge, label %.lr.ph

.lr.ph:                                           ; preds = %24, %30
  %26 = phi i8 [ %33, %30 ], [ %25, %24 ]
  %.167 = phi ptr [ %.2, %30 ], [ %.0, %24 ]
  %.05066 = phi i16 [ %31, %30 ], [ 1, %24 ]
  %.15265 = phi i16 [ %.253, %30 ], [ %.051, %24 ]
  %.not62 = icmp eq i16 %.15265, 0
  br i1 %.not62, label %30, label %27

27:                                               ; preds = %.lr.ph
  %28 = getelementptr inbounds nuw i8, ptr %.167, i64 1
  store i8 %26, ptr %.167, align 1, !tbaa !26
  %29 = add i16 %.15265, -1
  br label %30

30:                                               ; preds = %27, %.lr.ph
  %.253 = phi i16 [ %29, %27 ], [ 0, %.lr.ph ]
  %.2 = phi ptr [ %28, %27 ], [ %.167, %.lr.ph ]
  %31 = add i16 %.05066, 1
  %32 = zext i16 %31 to i64
  %gep = getelementptr i8, ptr %invariant.gep, i64 %32
  %33 = load i8, ptr %gep, align 1, !tbaa !26
  %.not58 = icmp eq i8 %33, 0
  br i1 %.not58, label %._crit_edge.loopexit, label %.lr.ph, !llvm.loop !46

._crit_edge.loopexit:                             ; preds = %30
  %34 = add i16 %.05066, 3
  br label %._crit_edge

._crit_edge:                                      ; preds = %._crit_edge.loopexit, %24
  %.152.lcssa = phi i16 [ %.051, %24 ], [ %.253, %._crit_edge.loopexit ]
  %.050.lcssa = phi i16 [ 3, %24 ], [ %34, %._crit_edge.loopexit ]
  %.1.lcssa = phi ptr [ %.0, %24 ], [ %.2, %._crit_edge.loopexit ]
  %.not59 = icmp eq i16 %.152.lcssa, 0
  br i1 %.not59, label %38, label %35

35:                                               ; preds = %._crit_edge
  %36 = getelementptr inbounds nuw i8, ptr %.1.lcssa, i64 1
  store i8 45, ptr %.1.lcssa, align 1, !tbaa !26
  %37 = add i16 %.152.lcssa, -1
  br label %38

38:                                               ; preds = %35, %._crit_edge
  %.354 = phi i16 [ %37, %35 ], [ 0, %._crit_edge ]
  %.3 = phi ptr [ %36, %35 ], [ %.1.lcssa, %._crit_edge ]
  %.not6070 = icmp eq i32 %0, 0
  br i1 %.not6070, label %._crit_edge75, label %.lr.ph74

.lr.ph74:                                         ; preds = %38, %.lr.ph74
  %.04772 = phi i32 [ %39, %.lr.ph74 ], [ 0, %38 ]
  %.04871 = phi i32 [ %40, %.lr.ph74 ], [ %0, %38 ]
  %39 = add nuw nsw i32 %.04772, 1
  %40 = ashr i32 %.04871, 4
  %.not60 = icmp ult i32 %.04871, 16
  br i1 %.not60, label %._crit_edge75, label %.lr.ph74, !llvm.loop !47

._crit_edge75:                                    ; preds = %.lr.ph74, %38
  %.047.lcssa = phi i32 [ 0, %38 ], [ %39, %.lr.ph74 ]
  %spec.store.select = tail call i32 @llvm.umax.i32(i32 %.047.lcssa, i32 4)
  %41 = icmp ne i32 %0, 0
  %42 = icmp sgt i32 %spec.store.select, 0
  %or.cond77 = select i1 %41, i1 true, i1 %42
  %43 = icmp ne i16 %.354, 0
  %or.cond378 = and i1 %or.cond77, %43
  br i1 %or.cond378, label %.lr.ph83.preheader, label %.critedge

.lr.ph83.preheader:                               ; preds = %._crit_edge75
  %44 = sext i32 %spec.store.select to i64
  br label %.lr.ph83

.lr.ph83:                                         ; preds = %.lr.ph83.preheader, %.lr.ph83
  %indvars.iv = phi i64 [ %44, %.lr.ph83.preheader ], [ %indvars.iv.next, %.lr.ph83 ]
  %.14980 = phi i32 [ %0, %.lr.ph83.preheader ], [ %52, %.lr.ph83 ]
  %.479 = phi i16 [ %.354, %.lr.ph83.preheader ], [ %53, %.lr.ph83 ]
  %45 = and i32 %.14980, 15
  %46 = icmp samesign ult i32 %45, 10
  %47 = or disjoint i32 %45, 48
  %48 = add nuw nsw i32 %45, 55
  %49 = select i1 %46, i32 %47, i32 %48
  %50 = trunc nuw nsw i32 %49 to i8
  %indvars.iv.next = add nsw i64 %indvars.iv, -1
  %51 = getelementptr inbounds i8, ptr %.3, i64 %indvars.iv.next
  store i8 %50, ptr %51, align 1, !tbaa !26
  %52 = ashr i32 %.14980, 4
  %53 = add i16 %.479, -1
  %54 = icmp ugt i32 %.14980, 15
  %55 = icmp sgt i64 %indvars.iv, 1
  %or.cond = or i1 %54, %55
  %56 = icmp ne i16 %53, 0
  %or.cond3 = select i1 %or.cond, i1 %56, i1 false
  br i1 %or.cond3, label %.lr.ph83, label %.critedge, !llvm.loop !48

.critedge:                                        ; preds = %.lr.ph83, %._crit_edge75
  %.4.lcssa = phi i16 [ %.354, %._crit_edge75 ], [ %53, %.lr.ph83 ]
  %.not61 = icmp eq i16 %.4.lcssa, 0
  br i1 %.not61, label %60, label %57

57:                                               ; preds = %.critedge
  %58 = zext nneg i32 %spec.store.select to i64
  %59 = getelementptr inbounds nuw i8, ptr %.3, i64 %58
  store i8 62, ptr %59, align 1, !tbaa !26
  br label %60

60:                                               ; preds = %57, %.critedge
  %61 = trunc i32 %spec.store.select to i16
  %62 = add i16 %.050.lcssa, %61
  ret i16 %62
}